target datalayout = "e-m:e-p270:32:32-p271:32:32-p272:64:64-i64:64-i128:128-f80:128-n8:16:32:64-S128"
target triple = "x86_64-pc-linux-gnu"

%struct.black_TWorker_ = type { i32, i32, i32, i32, i32, ptr, ptr, ptr, ptr, i32, i8, i64, i64, i64, i64, i16, i32, ptr, ptr, ptr, i32, %struct.FT_Outline_, i32, i32, i32, ptr, ptr, ptr, ptr, ptr, ptr }
%struct.FT_Outline_ = type { i16, i16, ptr, ptr, ptr, i32 }

; Function Attrs: nounwind uwtable
define internal void @Vertical_Sweep_Span(ptr noundef %0, i32 noundef %1, i64 noundef %2, i64 noundef %3) #0 {
  %5 = alloca ptr, align 8
  %6 = alloca i32, align 4
  %7 = alloca i64, align 8
  %8 = alloca i64, align 8
  %9 = alloca i32, align 4
  %10 = alloca i32, align 4
  %11 = alloca ptr, align 8
  %12 = alloca i32, align 4
  %13 = alloca i32, align 4
  %14 = alloca i32, align 4
  %15 = alloca i32, align 4
  store ptr %0, ptr %5, align 8, !tbaa !105
  store i32 %1, ptr %6, align 4, !tbaa !15
  store i64 %2, ptr %7, align 8, !tbaa !23
  store i64 %3, ptr %8, align 8, !tbaa !23
  call void @llvm.lifetime.start.p0(i64 4, ptr %9) #5
  %16 = load i64, ptr %7, align 8, !tbaa !23
  %17 = load ptr, ptr %5, align 8, !tbaa !105
  %18 = getelementptr inbounds nuw %struct.black_TWorker_, ptr %17, i32 0, i32 1
  %19 = load i32, ptr %18, align 4, !tbaa !117
  %20 = sext i32 %19 to i64
  %21 = add nsw i64 %16, %20
  %22 = sub nsw i64 %21, 1
  %23 = load ptr, ptr %5, align 8, !tbaa !105
  %24 = getelementptr inbounds nuw %struct.black_TWorker_, ptr %23, i32 0, i32 1
  %25 = load i32, ptr %24, align 4, !tbaa !117
  %26 = sub nsw i32 0, %25
  %27 = sext i32 %26 to i64
  %28 = and i64 %22, %27
  %29 = load ptr, ptr %5, align 8, !tbaa !105
  %30 = getelementptr inbounds nuw %struct.black_TWorker_, ptr %29, i32 0, i32 0
  %31 = load i32, ptr %30, align 8, !tbaa !115
  %32 = zext i32 %31 to i64
  %33 = ashr i64 %28, %32
  %34 = trunc i64 %33 to i32
  store i32 %34, ptr %9, align 4, !tbaa !15
  call void @llvm.lifetime.start.p0(i64 4, ptr %10) #5
  %35 = load i64, ptr %8, align 8, !tbaa !23
  %36 = load ptr, ptr %5, align 8, !tbaa !105
  %37 = getelementptr inbounds nuw %struct.black_TWorker_, ptr %36, i32 0, i32 1
  %38 = load i32, ptr %37, align 4, !tbaa !117
  %39 = sub nsw i32 0, %38
  %40 = sext i32 %39 to i64
  %41 = and i64 %35, %40
  %42 = load ptr, ptr %5, align 8, !tbaa !105
  %43 = getelementptr inbounds nuw %struct.black_TWorker_, ptr %42, i32 0, i32 0
  %44 = load i32, ptr %43, align 8, !tbaa !115
  %45 = zext i32 %44 to i64
  %46 = ashr i64 %41, %45
  %47 = trunc i64 %46 to i32
  store i32 %47, ptr %10, align 4, !tbaa !15
  %48 = load i32, ptr %6, align 4, !tbaa !15
  store i32 %48, ptr %6, align 4, !tbaa !15
  br label %49

49:                                               ; preds = %4
  br label %50

50:                                               ; preds = %49
  br label %51

51:                                               ; preds = %50
  %52 = load i32, ptr %10, align 4, !tbaa !15
  %53 = icmp sge i32 %52, 0
  br i1 %53, label %54, label %132

54:                                               ; preds = %51
  %55 = load i32, ptr %9, align 4, !tbaa !15
  %56 = load ptr, ptr %5, align 8, !tbaa !105
  %57 = getelementptr inbounds nuw %struct.black_TWorker_, ptr %56, i32 0, i32 23
  %58 = load i32, ptr %57, align 4, !tbaa !56
  %59 = icmp sle i32 %55, %58
  br i1 %59, label %60, label %132

60:                                               ; preds = %54
  call void @llvm.lifetime.start.p0(i64 8, ptr %11) #5
  call void @llvm.lifetime.start.p0(i64 4, ptr %12) #5
  call void @llvm.lifetime.start.p0(i64 4, ptr %13) #5
  call void @llvm.lifetime.start.p0(i64 4, ptr %14) #5
  call void @llvm.lifetime.start.p0(i64 4, ptr %15) #5
  %61 = load i32, ptr %9, align 4, !tbaa !15
  %62 = icmp slt i32 %61, 0
  br i1 %62, label %63, label %64

63:                                               ; preds = %60
  store i32 0, ptr %9, align 4, !tbaa !15
  br label %64

64:                                               ; preds = %63, %60
  %65 = load i32, ptr %10, align 4, !tbaa !15
  %66 = load ptr, ptr %5, align 8, !tbaa !105
  %67 = getelementptr inbounds nuw %struct.black_TWorker_, ptr %66, i32 0, i32 23
  %68 = load i32, ptr %67, align 4, !tbaa !56
  %69 = icmp sgt i32 %65, %68
  br i1 %69, label %70, label %74

70:                                               ; preds = %64
  %71 = load ptr, ptr %5, align 8, !tbaa !105
  %72 = getelementptr inbounds nuw %struct.black_TWorker_, ptr %71, i32 0, i32 23
  %73 = load i32, ptr %72, align 4, !tbaa !56
  store i32 %73, ptr %10, align 4, !tbaa !15
  br label %74

74:                                               ; preds = %70, %64
  br label %75

75:                                               ; preds = %74
  br label %76

76:                                               ; preds = %75
  br label %77

77:                                               ; preds = %76
  %78 = load i32, ptr %9, align 4, !tbaa !15
  %79 = ashr i32 %78, 3
  store i32 %79, ptr %12, align 4, !tbaa !15
  %80 = load i32, ptr %10, align 4, !tbaa !15
  %81 = ashr i32 %80, 3
  store i32 %81, ptr %14, align 4, !tbaa !15
  %82 = load i32, ptr %9, align 4, !tbaa !15
  %83 = and i32 %82, 7
  %84 = ashr i32 255, %83
  store i32 %84, ptr %13, align 4, !tbaa !15
  %85 = load i32, ptr %10, align 4, !tbaa !15
  %86 = and i32 %85, 7
  %87 = ashr i32 -128, %86
  store i32 %87, ptr %15, align 4, !tbaa !15
  %88 = load ptr, ptr %5, align 8, !tbaa !105
  %89 = getelementptr inbounds nuw %struct.black_TWorker_, ptr %88, i32 0, i32 26
  %90 = load ptr, ptr %89, align 8, !tbaa !120
  %91 = load i32, ptr %12, align 4, !tbaa !15
  %92 = sext i32 %91 to i64
  %93 = getelementptr inbounds i8, ptr %90, i64 %92
  store ptr %93, ptr %11, align 8, !tbaa !21
  %94 = load i32, ptr %12, align 4, !tbaa !15
  %95 = load i32, ptr %14, align 4, !tbaa !15
  %96 = sub nsw i32 %95, %94
  store i32 %96, ptr %14, align 4, !tbaa !15
  %97 = load i32, ptr %14, align 4, !tbaa !15
  %98 = icmp sgt i32 %97, 0
  br i1 %98, label %99, label %122

99:                                               ; preds = %77
  %100 = load i32, ptr %13, align 4, !tbaa !15
  %101 = load ptr, ptr %11, align 8, !tbaa !21
  %102 = getelementptr inbounds i8, ptr %101, i64 0
  %103 = load i8, ptr %102, align 1, !tbaa !121
  %104 = zext i8 %103 to i32
  %105 = or i32 %104, %100
  %106 = trunc i32 %105 to i8
  store i8 %106, ptr %102, align 1, !tbaa !121
  br label %107

107:                                              ; preds = %111, %99
  %108 = load i32, ptr %14, align 4, !tbaa !15
  %109 = add nsw i32 %108, -1
  store i32 %109, ptr %14, align 4, !tbaa !15
  %110 = icmp sgt i32 %109, 0
  br i1 %110, label %111, label %114

111:                                              ; preds = %107
  %112 = load ptr, ptr %11, align 8, !tbaa !21
  %113 = getelementptr inbounds nuw i8, ptr %112, i32 1
  store ptr %113, ptr %11, align 8, !tbaa !21
  store i8 -1, ptr %113, align 1, !tbaa !121
  br label %107, !llvm.loop !122

114:                                              ; preds = %107
  %115 = load i32, ptr %15, align 4, !tbaa !15
  %116 = load ptr, ptr %11, align 8, !tbaa !21
  %117 = getelementptr inbounds i8, ptr %116, i64 1
  %118 = load i8, ptr %117, align 1, !tbaa !121
  %119 = zext i8 %118 to i32
  %120 = or i32 %119, %115
  %121 = trunc i32 %120 to i8
  store i8 %121, ptr %117, align 1, !tbaa !121
  br label %131

122:                                              ; preds = %77
  %123 = load i32, ptr %13, align 4, !tbaa !15
  %124 = load i32, ptr %15, align 4, !tbaa !15
  %125 = and i32 %123, %124
  %126 = load ptr, ptr %11, align 8, !tbaa !21
  %127 = load i8, ptr %126, align 1, !tbaa !121
  %128 = zext i8 %127 to i32
  %129 = or i32 %128, %125
  %130 = trunc i32 %129 to i8
  store i8 %130, ptr %126, align 1, !tbaa !121
  br label %131

131:                                              ; preds = %122, %114
  call void @llvm.lifetime.end.p0(i64 4, ptr %15) #5
  call void @llvm.lifetime.end.p0(i64 4, ptr %14) #5
  call void @llvm.lifetime.end.p0(i64 4, ptr %13) #5
  call void @llvm.lifetime.end.p0(i64 4, ptr %12) #5
  call void @llvm.lifetime.end.p0(i64 8, ptr %11) #5
  br label %132

132:                                              ; preds = %131, %54, %51
  br label %133

133:                                              ; preds = %132
  br label %134

134:                                              ; preds = %133
  br label %135

135:                                              ; preds = %134
  call void @llvm.lifetime.end.p0(i64 4, ptr %10) #5
  call void @llvm.lifetime.end.p0(i64 4, ptr %9) #5
  ret void
}