; Function Attrs: mustprogress nofree norecurse nosync nounwind willreturn memory(readwrite, inaccessiblemem: none) uwtable
define internal void @Vertical_Sweep_Span(ptr noundef readonly captures(none) %0, i32 %1, i64 noundef %2, i64 noundef %3) #6 {
  %5 = getelementptr inbounds nuw i8, ptr %0, i64 4
  %6 = load i32, ptr %5, align 4, !tbaa !88
  %7 = sext i32 %6 to i64
  %8 = add i64 %2, -1
  %9 = add i64 %8, %7
  %10 = sub nsw i32 0, %6
  %11 = sext i32 %10 to i64
  %12 = and i64 %9, %11
  %13 = load i32, ptr %0, align 8, !tbaa !86
  %14 = zext i32 %13 to i64
  %15 = ashr i64 %12, %14
  %16 = trunc i64 %15 to i32
  %17 = and i64 %3, %11
  %18 = ashr i64 %17, %14
  %19 = trunc i64 %18 to i32
  %20 = icmp sgt i32 %19, -1
  br i1 %20, label %21, label %57

21:                                               ; preds = %4
  %22 = getelementptr inbounds nuw i8, ptr %0, i64 180
  %23 = load i32, ptr %22, align 4, !tbaa !41
  %.not = icmp slt i32 %23, %16
  br i1 %.not, label %57, label %24

24:                                               ; preds = %21
  %spec.store.select = tail call i32 @llvm.smax.i32(i32 %16, i32 0)
  %spec.select = tail call i32 @llvm.smin.i32(i32 %23, i32 %19)
  %25 = lshr i32 %spec.store.select, 3
  %26 = ashr i32 %spec.select, 3
  %27 = and i32 %spec.store.select, 7
  %28 = lshr i32 255, %27
  %29 = and i32 %spec.select, 7
  %30 = ashr exact i32 -128, %29
  %31 = getelementptr inbounds nuw i8, ptr %0, i64 200
  %32 = load ptr, ptr %31, align 8, !tbaa !95
  %33 = zext nneg i32 %25 to i64
  %34 = getelementptr inbounds nuw i8, ptr %32, i64 %33
  %35 = sub nsw i32 %26, %25
  %36 = icmp sgt i32 %35, 0
  br i1 %36, label %37, label %52

37:                                               ; preds = %24
  %38 = load i8, ptr %34, align 1, !tbaa !96
  %39 = trunc nuw i32 %28 to i8
  %40 = or i8 %38, %39
  store i8 %40, ptr %34, align 1, !tbaa !96
  %.not41 = icmp eq i32 %35, 1
  br i1 %.not41, label %._crit_edge, label %.lr.ph.preheader

.lr.ph.preheader:                                 ; preds = %37
  %41 = getelementptr i8, ptr %32, i64 %33
  %scevgep = getelementptr i8, ptr %41, i64 1
  %42 = add nuw nsw i32 %25, 2
  %43 = sub nsw i32 %26, %42
  %44 = zext i32 %43 to i64
  %45 = add nuw nsw i64 %44, 1
  tail call void @llvm.memset.p0.i64(ptr noundef nonnull align 1 dereferenceable(1) %scevgep, i8 -1, i64 %45, i1 false), !tbaa !96
  %46 = getelementptr i8, ptr %32, i64 %33
  %47 = getelementptr i8, ptr %46, i64 %44
  %scevgep43 = getelementptr i8, ptr %47, i64 1
  br label %._crit_edge

._crit_edge:                                      ; preds = %.lr.ph.preheader, %37
  %.033.lcssa = phi ptr [ %34, %37 ], [ %scevgep43, %.lr.ph.preheader ]
  %48 = getelementptr inbounds nuw i8, ptr %.033.lcssa, i64 1
  %49 = load i8, ptr %48, align 1, !tbaa !96
  %50 = trunc nsw i32 %30 to i8
  %51 = or i8 %49, %50
  store i8 %51, ptr %48, align 1, !tbaa !96
  br label %57

52:                                               ; preds = %24
  %53 = and i32 %30, %28
  %54 = load i8, ptr %34, align 1, !tbaa !96
  %55 = trunc nuw i32 %53 to i8
  %56 = or i8 %54, %55
  store i8 %56, ptr %34, align 1, !tbaa !96
  br label %57

57:                                               ; preds = %._crit_edge, %52, %4, %21
  ret void
}